target datalayout = "e-m:e-p270:32:32-p271:32:32-p272:64:64-i64:64-i128:128-f80:128-n8:16:32:64-S128"
target triple = "x86_64-pc-linux-gnu"

%struct.SDL_PixelFormatDetails = type { i32, i8, i8, [2 x i8], i32, i32, i32, i32, i8, i8, i8, i8, i8, i8, i8, i8 }

; Function Attrs: nounwind uwtable
define hidden void @SDL_Get8888AlphaMaskAndShift(ptr noundef %0, ptr noundef %1, ptr noundef %2) #0 {
  %4 = alloca ptr, align 8
  %5 = alloca ptr, align 8
  %6 = alloca ptr, align 8
  store ptr %0, ptr %4, align 8
  store ptr %1, ptr %5, align 8
  store ptr %2, ptr %6, align 8
  %7 = load ptr, ptr %4, align 8
  %8 = getelementptr inbounds nuw %struct.SDL_PixelFormatDetails, ptr %7, i32 0, i32 7
  %9 = load i32, ptr %8, align 4
  %10 = icmp ne i32 %9, 0
  br i1 %10, label %11, label %21

11:                                               ; preds = %3
  %12 = load ptr, ptr %4, align 8
  %13 = getelementptr inbounds nuw %struct.SDL_PixelFormatDetails, ptr %12, i32 0, i32 7
  %14 = load i32, ptr %13, align 4
  %15 = load ptr, ptr %5, align 8
  store i32 %14, ptr %15, align 4
  %16 = load ptr, ptr %4, align 8
  %17 = getelementptr inbounds nuw %struct.SDL_PixelFormatDetails, ptr %16, i32 0, i32 15
  %18 = load i8, ptr %17, align 1
  %19 = zext i8 %18 to i32
  %20 = load ptr, ptr %6, align 8
  store i32 %19, ptr %20, align 4
  br label %48

21:                                               ; preds = %3
  %22 = load ptr, ptr %4, align 8
  %23 = getelementptr inbounds nuw %struct.SDL_PixelFormatDetails, ptr %22, i32 0, i32 4
  %24 = load i32, ptr %23, align 4
  %25 = load ptr, ptr %4, align 8
  %26 = getelementptr inbounds nuw %struct.SDL_PixelFormatDetails, ptr %25, i32 0, i32 5
  %27 = load i32, ptr %26, align 4
  %28 = or i32 %24, %27
  %29 = load ptr, ptr %4, align 8
  %30 = getelementptr inbounds nuw %struct.SDL_PixelFormatDetails, ptr %29, i32 0, i32 6
  %31 = load i32, ptr %30, align 4
  %32 = or i32 %28, %31
  %33 = xor i32 %32, -1
  %34 = load ptr, ptr %5, align 8
  store i32 %33, ptr %34, align 4
  %35 = load ptr, ptr %5, align 8
  %36 = load i32, ptr %35, align 4
  switch i32 %36, label %45 [
    i32 255, label %37
    i32 65280, label %39
    i32 16711680, label %41
    i32 -16777216, label %43
  ]

37:                                               ; preds = %21
  %38 = load ptr, ptr %6, align 8
  store i32 0, ptr %38, align 4
  br label %47

39:                                               ; preds = %21
  %40 = load ptr, ptr %6, align 8
  store i32 8, ptr %40, align 4
  br label %47

41:                                               ; preds = %21
  %42 = load ptr, ptr %6, align 8
  store i32 16, ptr %42, align 4
  br label %47

43:                                               ; preds = %21
  %44 = load ptr, ptr %6, align 8
  store i32 24, ptr %44, align 4
  br label %47

45:                                               ; preds = %21
  %46 = load ptr, ptr %6, align 8
  store i32 0, ptr %46, align 4
  br label %47

47:                                               ; preds = %45, %43, %41, %39, %37
  br label %48

48:                                               ; preds = %47, %11
  ret void
}