; Function Attrs: mustprogress nofree norecurse nosync nounwind willreturn memory(argmem: readwrite) uwtable
define hidden void @SDL_Get8888AlphaMaskAndShift(ptr noundef readonly captures(none) %0, ptr noundef writeonly captures(none) initializes((0, 4)) %1, ptr noundef writeonly captures(none) initializes((0, 4)) %2) local_unnamed_addr #4 {
  %4 = getelementptr inbounds nuw i8, ptr %0, i64 20
  %5 = load i32, ptr %4, align 4
  %.not = icmp eq i32 %5, 0
  br i1 %.not, label %10, label %6

6:                                                ; preds = %3
  store i32 %5, ptr %1, align 4
  %7 = getelementptr inbounds nuw i8, ptr %0, i64 31
  %8 = load i8, ptr %7, align 1
  %9 = zext i8 %8 to i32
  br label %23

10:                                               ; preds = %3
  %11 = getelementptr inbounds nuw i8, ptr %0, i64 8
  %12 = load i32, ptr %11, align 4
  %13 = getelementptr inbounds nuw i8, ptr %0, i64 12
  %14 = load i32, ptr %13, align 4
  %15 = or i32 %14, %12
  %16 = getelementptr inbounds nuw i8, ptr %0, i64 16
  %17 = load i32, ptr %16, align 4
  %18 = or i32 %15, %17
  %19 = xor i32 %18, -1
  store i32 %19, ptr %1, align 4
  switch i32 %19, label %22 [
    i32 -16777216, label %21
    i32 65280, label %23
    i32 16711680, label %20
  ]

20:                                               ; preds = %10
  br label %23

21:                                               ; preds = %10
  br label %23

22:                                               ; preds = %10
  br label %23

23:                                               ; preds = %10, %20, %21, %22, %6
  %.sink = phi i32 [ 16, %20 ], [ 24, %21 ], [ 0, %22 ], [ %9, %6 ], [ 8, %10 ]
  store i32 %.sink, ptr %2, align 4
  ret void
}